target datalayout = "e-m:e-p270:32:32-p271:32:32-p272:64:64-i64:64-i128:128-f80:128-n8:16:32:64-S128"
target triple = "x86_64-pc-linux-gnu"

%struct.pkcs7_st = type { ptr, i64, i32, i32, ptr, %union.anon, %struct.PKCS7_CTX_st }
%union.anon = type { ptr }
%struct.PKCS7_CTX_st = type { ptr, ptr }

; Function Attrs: nounwind uwtable
define i32 @PKCS7_type_is_other(ptr noundef %0) #0 {
  %2 = alloca ptr, align 8
  %3 = alloca i32, align 4
  %4 = alloca i32, align 4
  store ptr %0, ptr %2, align 8, !tbaa !3
  call void @llvm.lifetime.start.p0(i64 4, ptr %3) #5
  store i32 1, ptr %3, align 4, !tbaa !8
  call void @llvm.lifetime.start.p0(i64 4, ptr %4) #5
  %5 = load ptr, ptr %2, align 8, !tbaa !3
  %6 = getelementptr inbounds nuw %struct.pkcs7_st, ptr %5, i32 0, i32 4
  %7 = load ptr, ptr %6, align 8, !tbaa !10
  %8 = call i32 @OBJ_obj2nid(ptr noundef %7)
  store i32 %8, ptr %4, align 4, !tbaa !8
  %9 = load i32, ptr %4, align 4, !tbaa !8
  switch i32 %9, label %11 [
    i32 21, label %10
    i32 22, label %10
    i32 23, label %10
    i32 24, label %10
    i32 25, label %10
    i32 26, label %10
  ]

10:                                               ; preds = %1, %1, %1, %1, %1, %1
  store i32 0, ptr %3, align 4, !tbaa !8
  br label %12

11:                                               ; preds = %1
  store i32 1, ptr %3, align 4, !tbaa !8
  br label %12

12:                                               ; preds = %11, %10
  %13 = load i32, ptr %3, align 4, !tbaa !8
  call void @llvm.lifetime.end.p0(i64 4, ptr %4) #5
  call void @llvm.lifetime.end.p0(i64 4, ptr %3) #5
  ret i32 %13
}