; Function Attrs: nounwind uwtable
define range(i32 0, 2) i32 @PKCS7_type_is_other(ptr noundef readonly captures(none) %0) local_unnamed_addr #0 {
  %2 = getelementptr inbounds nuw i8, ptr %0, i64 24
  %3 = load ptr, ptr %2, align 8, !tbaa !3
  %4 = tail call i32 @OBJ_obj2nid(ptr noundef %3) #4
  %5 = add i32 %4, -27
  %switch = icmp ult i32 %5, -6
  %. = zext i1 %switch to i32
  ret i32 %.
}